target datalayout = "e-m:e-p270:32:32-p271:32:32-p272:64:64-i64:64-i128:128-f80:128-n8:16:32:64-S128"
target triple = "x86_64-pc-linux-gnu"

%"class.std::__cxx11::basic_string" = type { %"struct.std::__cxx11::basic_string<char>::_Alloc_hider", i64, %union.anon.0 }
%"struct.std::__cxx11::basic_string<char>::_Alloc_hider" = type { ptr }
%union.anon.0 = type { i64, [8 x i8] }
%"struct.vcpkg::LocalizedString" = type { %"class.std::__cxx11::basic_string" }
%"struct.vcpkg::DiagnosticLine" = type { i32, %"struct.vcpkg::Optional", %"struct.vcpkg::TextRowCol", %"struct.vcpkg::LocalizedString" }
%"struct.vcpkg::Optional" = type { %"struct.vcpkg::details::OptionalStorage" }
%"struct.vcpkg::details::OptionalStorage" = type { %"struct.vcpkg::details::OptionalStorageDtor" }
%"struct.vcpkg::details::OptionalStorageDtor" = type { i8, %union.anon }
%union.anon = type { %"class.std::__cxx11::basic_string" }
%"struct.vcpkg::TextRowCol" = type { i32, i32 }
%"struct.vcpkg::DiagnosticContext" = type { ptr }
%"class.std::vector.6" = type { %"struct.std::_Vector_base.7" }
%"struct.std::_Vector_base.7" = type { %"struct.std::_Vector_base<vcpkg::DiagnosticLine, std::allocator<vcpkg::DiagnosticLine>>::_Vector_impl" }
%"struct.std::_Vector_base<vcpkg::DiagnosticLine, std::allocator<vcpkg::DiagnosticLine>>::_Vector_impl" = type { %"struct.std::_Vector_base<vcpkg::DiagnosticLine, std::allocator<vcpkg::DiagnosticLine>>::_Vector_impl_data" }
%"struct.std::_Vector_base<vcpkg::DiagnosticLine, std::allocator<vcpkg::DiagnosticLine>>::_Vector_impl_data" = type { ptr, ptr, ptr }
%"class.__gnu_cxx::__normal_iterator.17" = type { ptr }
%"struct.vcpkg::AttemptDiagnosticContext" = type { %"struct.vcpkg::DiagnosticContext", ptr, %"class.std::vector.6" }

; Function Attrs: mustprogress nounwind uwtable
define linkonce_odr dso_local void @_ZN9__gnu_cxx17__normal_iteratorIPN5vcpkg14DiagnosticLineESt6vectorIS2_SaIS2_EEEC2ERKS3_(ptr noundef nonnull align 8 dereferenceable(8) %0, ptr noundef nonnull align 8 dereferenceable(8) %1) unnamed_addr #2 comdat align 2 {
  %3 = alloca ptr, align 8
  %4 = alloca ptr, align 8
  store ptr %0, ptr %3, align 8, !tbaa !111
  store ptr %1, ptr %4, align 8, !tbaa !199
  %5 = load ptr, ptr %3, align 8
  %6 = getelementptr inbounds nuw %"class.__gnu_cxx::__normal_iterator.17", ptr %5, i32 0, i32 0
  %7 = load ptr, ptr %4, align 8, !tbaa !199
  %8 = load ptr, ptr %7, align 8, !tbaa !9
  store ptr %8, ptr %6, align 8, !tbaa !113
  ret void
}

; Function Attrs: mustprogress uwtable
define linkonce_odr dso_local void @_ZNSt15__new_allocatorIN5vcpkg14DiagnosticLineEE9constructIS1_JRKS1_EEEvPT_DpOT0_(ptr noundef nonnull align 1 dereferenceable(1) %0, ptr noundef %1, ptr noundef nonnull align 8 dereferenceable(88) %2) #0 comdat align 2 {
  %4 = alloca ptr, align 8
  %5 = alloca ptr, align 8
  %6 = alloca ptr, align 8
  store ptr %0, ptr %4, align 8, !tbaa !197
  store ptr %1, ptr %5, align 8, !tbaa !9
  store ptr %2, ptr %6, align 8, !tbaa !9
  %7 = load ptr, ptr %5, align 8, !tbaa !9
  %8 = load ptr, ptr %6, align 8, !tbaa !9
  call void @_ZN5vcpkg14DiagnosticLineC2ERKS0_(ptr noundef nonnull align 8 dereferenceable(88) %7, ptr noundef nonnull align 8 dereferenceable(88) %8)
  ret void
}

; Function Attrs: mustprogress nounwind uwtable
define linkonce_odr dso_local ptr @_ZNSt6vectorIN5vcpkg14DiagnosticLineESaIS1_EE3endEv(ptr noundef nonnull align 8 dereferenceable(24) %0) #2 comdat align 2 {
  %2 = alloca %"class.__gnu_cxx::__normal_iterator.17", align 8
  %3 = alloca ptr, align 8
  store ptr %0, ptr %3, align 8, !tbaa !79
  %4 = load ptr, ptr %3, align 8
  %5 = getelementptr inbounds nuw %"struct.std::_Vector_base.7", ptr %4, i32 0, i32 0
  %6 = getelementptr inbounds nuw %"struct.std::_Vector_base<vcpkg::DiagnosticLine, std::allocator<vcpkg::DiagnosticLine>>::_Vector_impl_data", ptr %5, i32 0, i32 1
  call void @_ZN9__gnu_cxx17__normal_iteratorIPN5vcpkg14DiagnosticLineESt6vectorIS2_SaIS2_EEEC2ERKS3_(ptr noundef nonnull align 8 dereferenceable(8) %2, ptr noundef nonnull align 8 dereferenceable(8) %6) #20
  %7 = getelementptr inbounds nuw %"class.__gnu_cxx::__normal_iterator.17", ptr %2, i32 0, i32 0
  %8 = load ptr, ptr %7, align 8
  ret ptr %8
}

; Function Attrs: mustprogress uwtable
define linkonce_odr dso_local void @_ZNSt16allocator_traitsISaIN5vcpkg14DiagnosticLineEEE9constructIS1_JRKS1_EEEvRS2_PT_DpOT0_(ptr noundef nonnull align 1 dereferenceable(1) %0, ptr noundef %1, ptr noundef nonnull align 8 dereferenceable(88) %2) #0 comdat align 2 {
  %4 = alloca ptr, align 8
  %5 = alloca ptr, align 8
  %6 = alloca ptr, align 8
  store ptr %0, ptr %4, align 8, !tbaa !192
  store ptr %1, ptr %5, align 8, !tbaa !9
  store ptr %2, ptr %6, align 8, !tbaa !9
  %7 = load ptr, ptr %4, align 8, !tbaa !192
  %8 = load ptr, ptr %5, align 8, !tbaa !9
  %9 = load ptr, ptr %6, align 8, !tbaa !9
  call void @_ZNSt15__new_allocatorIN5vcpkg14DiagnosticLineEE9constructIS1_JRKS1_EEEvPT_DpOT0_(ptr noundef nonnull align 1 dereferenceable(1) %7, ptr noundef %8, ptr noundef nonnull align 8 dereferenceable(88) %9)
  ret void
}

; Function Attrs: mustprogress uwtable
define linkonce_odr dso_local void @_ZNSt6vectorIN5vcpkg14DiagnosticLineESaIS1_EE9push_backERKS1_(ptr noundef nonnull align 8 dereferenceable(24) %0, ptr noundef nonnull align 8 dereferenceable(88) %1) #0 comdat align 2 {
  %3 = alloca ptr, align 8
  %4 = alloca ptr, align 8
  %5 = alloca %"class.__gnu_cxx::__normal_iterator.17", align 8
  store ptr %0, ptr %3, align 8, !tbaa !79
  store ptr %1, ptr %4, align 8, !tbaa !9
  %6 = load ptr, ptr %3, align 8
  %7 = getelementptr inbounds nuw %"struct.std::_Vector_base.7", ptr %6, i32 0, i32 0
  %8 = getelementptr inbounds nuw %"struct.std::_Vector_base<vcpkg::DiagnosticLine, std::allocator<vcpkg::DiagnosticLine>>::_Vector_impl_data", ptr %7, i32 0, i32 1
  %9 = load ptr, ptr %8, align 8, !tbaa !81
  %10 = getelementptr inbounds nuw %"struct.std::_Vector_base.7", ptr %6, i32 0, i32 0
  %11 = getelementptr inbounds nuw %"struct.std::_Vector_base<vcpkg::DiagnosticLine, std::allocator<vcpkg::DiagnosticLine>>::_Vector_impl_data", ptr %10, i32 0, i32 2
  %12 = load ptr, ptr %11, align 8, !tbaa !83
  %13 = icmp ne ptr %9, %12
  br i1 %13, label %14, label %24

14:                                               ; preds = %2
  %15 = getelementptr inbounds nuw %"struct.std::_Vector_base.7", ptr %6, i32 0, i32 0
  %16 = getelementptr inbounds nuw %"struct.std::_Vector_base.7", ptr %6, i32 0, i32 0
  %17 = getelementptr inbounds nuw %"struct.std::_Vector_base<vcpkg::DiagnosticLine, std::allocator<vcpkg::DiagnosticLine>>::_Vector_impl_data", ptr %16, i32 0, i32 1
  %18 = load ptr, ptr %17, align 8, !tbaa !81
  %19 = load ptr, ptr %4, align 8, !tbaa !9
  call void @_ZNSt16allocator_traitsISaIN5vcpkg14DiagnosticLineEEE9constructIS1_JRKS1_EEEvRS2_PT_DpOT0_(ptr noundef nonnull align 1 dereferenceable(1) %15, ptr noundef %18, ptr noundef nonnull align 8 dereferenceable(88) %19)
  %20 = getelementptr inbounds nuw %"struct.std::_Vector_base.7", ptr %6, i32 0, i32 0
  %21 = getelementptr inbounds nuw %"struct.std::_Vector_base<vcpkg::DiagnosticLine, std::allocator<vcpkg::DiagnosticLine>>::_Vector_impl_data", ptr %20, i32 0, i32 1
  %22 = load ptr, ptr %21, align 8, !tbaa !81
  %23 = getelementptr inbounds nuw %"struct.vcpkg::DiagnosticLine", ptr %22, i32 1
  store ptr %23, ptr %21, align 8, !tbaa !81
  br label %30

24:                                               ; preds = %2
  %25 = call ptr @_ZNSt6vectorIN5vcpkg14DiagnosticLineESaIS1_EE3endEv(ptr noundef nonnull align 8 dereferenceable(24) %6) #20
  %26 = getelementptr inbounds nuw %"class.__gnu_cxx::__normal_iterator.17", ptr %5, i32 0, i32 0
  store ptr %25, ptr %26, align 8
  %27 = load ptr, ptr %4, align 8, !tbaa !9
  %28 = getelementptr inbounds nuw %"class.__gnu_cxx::__normal_iterator.17", ptr %5, i32 0, i32 0
  %29 = load ptr, ptr %28, align 8
  call void @_ZNSt6vectorIN5vcpkg14DiagnosticLineESaIS1_EE17_M_realloc_insertIJRKS1_EEEvN9__gnu_cxx17__normal_iteratorIPS1_S3_EEDpOT_(ptr noundef nonnull align 8 dereferenceable(24) %6, ptr %29, ptr noundef nonnull align 8 dereferenceable(88) %27)
  br label %30

30:                                               ; preds = %24, %14
  ret void
}

; Function Attrs: mustprogress uwtable
define dso_local void @_ZN5vcpkg24AttemptDiagnosticContext6reportERKNS_14DiagnosticLineE(ptr noundef nonnull align 8 dereferenceable(40) %0, ptr noundef nonnull align 8 dereferenceable(88) %1) unnamed_addr #0 align 2 {
  %3 = alloca ptr, align 8
  %4 = alloca ptr, align 8
  store ptr %0, ptr %3, align 8, !tbaa !107
  store ptr %1, ptr %4, align 8, !tbaa !9
  %5 = load ptr, ptr %3, align 8
  %6 = getelementptr inbounds nuw %"struct.vcpkg::AttemptDiagnosticContext", ptr %5, i32 0, i32 2
  %7 = load ptr, ptr %4, align 8, !tbaa !9
  call void @_ZNSt6vectorIN5vcpkg14DiagnosticLineESaIS1_EE9push_backERKS1_(ptr noundef nonnull align 8 dereferenceable(24) %6, ptr noundef nonnull align 8 dereferenceable(88) %7)
  ret void
}